target datalayout = "e-m:e-p270:32:32-p271:32:32-p272:64:64-i64:64-i128:128-f80:128-n8:16:32:64-S128"
target triple = "x86_64-pc-linux-gnu"

%struct.uv_tcp_s = type { ptr, ptr, i32, ptr, [2 x ptr], %union.anon, ptr, i32, i64, ptr, ptr, ptr, ptr, %struct.uv__io_s, [2 x ptr], [2 x ptr], ptr, i32, i32, ptr }
%union.anon = type { [4 x ptr] }
%struct.uv__io_s = type { ptr, [2 x ptr], [2 x ptr], i32, i32, i32 }

; Function Attrs: nounwind uwtable
define dso_local i32 @uv_tcp_open(ptr noundef %0, i32 noundef %1) #0 {
  %3 = alloca i32, align 4
  %4 = alloca ptr, align 8
  %5 = alloca i32, align 4
  %6 = alloca i32, align 4
  %7 = alloca i32, align 4
  store ptr %0, ptr %4, align 8, !tbaa !9
  store i32 %1, ptr %5, align 4, !tbaa !11
  call void @llvm.lifetime.start.p0(i64 4, ptr %6) #8
  %8 = load ptr, ptr %4, align 8, !tbaa !9
  %9 = getelementptr inbounds nuw %struct.uv_tcp_s, ptr %8, i32 0, i32 1
  %10 = load ptr, ptr %9, align 8, !tbaa !45
  %11 = load i32, ptr %5, align 4, !tbaa !11
  %12 = call i32 @uv__fd_exists(ptr noundef %10, i32 noundef %11)
  %13 = icmp ne i32 %12, 0
  br i1 %13, label %14, label %15

14:                                               ; preds = %2
  store i32 -17, ptr %3, align 4
  store i32 1, ptr %7, align 4
  br label %26

15:                                               ; preds = %2
  %16 = load i32, ptr %5, align 4, !tbaa !11
  %17 = call i32 @uv__nonblock_ioctl(i32 noundef %16, i32 noundef 1)
  store i32 %17, ptr %6, align 4, !tbaa !11
  %18 = load i32, ptr %6, align 4, !tbaa !11
  %19 = icmp ne i32 %18, 0
  br i1 %19, label %20, label %22

20:                                               ; preds = %15
  %21 = load i32, ptr %6, align 4, !tbaa !11
  store i32 %21, ptr %3, align 4
  store i32 1, ptr %7, align 4
  br label %26

22:                                               ; preds = %15
  %23 = load ptr, ptr %4, align 8, !tbaa !9
  %24 = load i32, ptr %5, align 4, !tbaa !11
  %25 = call i32 @uv__stream_open(ptr noundef %23, i32 noundef %24, i32 noundef 49152)
  store i32 %25, ptr %3, align 4
  store i32 1, ptr %7, align 4
  br label %26

26:                                               ; preds = %22, %20, %14
  call void @llvm.lifetime.end.p0(i64 4, ptr %6) #8
  %27 = load i32, ptr %3, align 4
  ret i32 %27
}